#include <math.h>
#include <stdio.h>
#include <stdlib.h>
#include <string.h>


int f(int n,int k)
{
	int a[100],i,m;//a[i]???i+1?????????????????
	a[n-1]=1;
	for(i=n-1;i>0;i--){	
	a[i-1]=(a[i]*n+k)/(n-1);//??????????????????
	}
	m=n*a[0]+k;
	return m;//??m??
}

int main(int argc, char* argv[])

{
	int n,k,m;
	scanf("%d %d",&n,&k);
	if(n==2){
		m=f(n,k);}
	else m=pow(n,n)-k*(n-1);/*???????m%n=k,?k*(n-1)?????????m????,???m+k*(n-1)??
							????????[m+k*(n-1)]/n????(n-1)??????????????????n;
							??????n?????[((n-1)^(n-1))*m+k*((n-1)^n)]/(n^n),?????(n-1)??
							?????????????m????=n^n-k*(n-1);*/					
	printf("%d\n",m);	
	return 0;
}

