; ModuleID = '54/998.c'
source_filename = "54/998.c"
target datalayout = "e-m:e-p270:32:32-p271:32:32-p272:64:64-i64:64-f80:128-n8:16:32:64-S128"
target triple = "x86_64-pc-linux-gnu"

@.str = private unnamed_addr constant [6 x i8] c"%d %d\00", align 1
@.str.1 = private unnamed_addr constant [4 x i8] c"%d\0A\00", align 1

; Function Attrs: noinline nounwind uwtable
define dso_local i32 @f(i32 %0, i32 %1) #0 {
  %3 = alloca i32, align 4
  %4 = alloca i32, align 4
  %5 = alloca [100 x i32], align 16
  %6 = alloca i32, align 4
  %7 = alloca i32, align 4
  store i32 %0, i32* %3, align 4
  store i32 %1, i32* %4, align 4
  %8 = load i32, i32* %3, align 4
  %9 = sub nsw i32 %8, 1
  %10 = sext i32 %9 to i64
  %11 = getelementptr inbounds [100 x i32], [100 x i32]* %5, i64 0, i64 %10
  store i32 1, i32* %11, align 4
  %12 = load i32, i32* %3, align 4
  %13 = sub nsw i32 %12, 1
  store i32 %13, i32* %6, align 4
  br label %14

14:                                               ; preds = %33, %2
  %15 = load i32, i32* %6, align 4
  %16 = icmp sgt i32 %15, 0
  br i1 %16, label %17, label %36

17:                                               ; preds = %14
  %18 = load i32, i32* %6, align 4
  %19 = sext i32 %18 to i64
  %20 = getelementptr inbounds [100 x i32], [100 x i32]* %5, i64 0, i64 %19
  %21 = load i32, i32* %20, align 4
  %22 = load i32, i32* %3, align 4
  %23 = mul nsw i32 %21, %22
  %24 = load i32, i32* %4, align 4
  %25 = add nsw i32 %23, %24
  %26 = load i32, i32* %3, align 4
  %27 = sub nsw i32 %26, 1
  %28 = sdiv i32 %25, %27
  %29 = load i32, i32* %6, align 4
  %30 = sub nsw i32 %29, 1
  %31 = sext i32 %30 to i64
  %32 = getelementptr inbounds [100 x i32], [100 x i32]* %5, i64 0, i64 %31
  store i32 %28, i32* %32, align 4
  br label %33

33:                                               ; preds = %17
  %34 = load i32, i32* %6, align 4
  %35 = add nsw i32 %34, -1
  store i32 %35, i32* %6, align 4
  br label %14

36:                                               ; preds = %14
  %37 = load i32, i32* %3, align 4
  %38 = getelementptr inbounds [100 x i32], [100 x i32]* %5, i64 0, i64 0
  %39 = load i32, i32* %38, align 16
  %40 = mul nsw i32 %37, %39
  %41 = load i32, i32* %4, align 4
  %42 = add nsw i32 %40, %41
  store i32 %42, i32* %7, align 4
  %43 = load i32, i32* %7, align 4
  ret i32 %43
}

; Function Attrs: noinline nounwind uwtable
define dso_local i32 @main(i32 %0, i8** %1) #0 {
  %3 = alloca i32, align 4
  %4 = alloca i32, align 4
  %5 = alloca i8**, align 8
  %6 = alloca i32, align 4
  %7 = alloca i32, align 4
  %8 = alloca i32, align 4
  store i32 0, i32* %3, align 4
  store i32 %0, i32* %4, align 4
  store i8** %1, i8*** %5, align 8
  %9 = call i32 (i8*, ...) @__isoc99_scanf(i8* getelementptr inbounds ([6 x i8], [6 x i8]* @.str, i64 0, i64 0), i32* %6, i32* %7)
  %10 = load i32, i32* %6, align 4
  %11 = icmp eq i32 %10, 2
  br i1 %11, label %12, label %16

12:                                               ; preds = %2
  %13 = load i32, i32* %6, align 4
  %14 = load i32, i32* %7, align 4
  %15 = call i32 @f(i32 %13, i32 %14)
  store i32 %15, i32* %8, align 4
  br label %29

16:                                               ; preds = %2
  %17 = load i32, i32* %6, align 4
  %18 = sitofp i32 %17 to double
  %19 = load i32, i32* %6, align 4
  %20 = sitofp i32 %19 to double
  %21 = call double @pow(double %18, double %20) #3
  %22 = load i32, i32* %7, align 4
  %23 = load i32, i32* %6, align 4
  %24 = sub nsw i32 %23, 1
  %25 = mul nsw i32 %22, %24
  %26 = sitofp i32 %25 to double
  %27 = fsub double %21, %26
  %28 = fptosi double %27 to i32
  store i32 %28, i32* %8, align 4
  br label %29

29:                                               ; preds = %16, %12
  %30 = load i32, i32* %8, align 4
  %31 = call i32 (i8*, ...) @printf(i8* getelementptr inbounds ([4 x i8], [4 x i8]* @.str.1, i64 0, i64 0), i32 %30)
  ret i32 0
}

declare dso_local i32 @__isoc99_scanf(i8*, ...) #1

; Function Attrs: nounwind
declare dso_local double @pow(double, double) #2

declare dso_local i32 @printf(i8*, ...) #1


!llvm.module.flags = !{!0}
!llvm.ident = !{!1}

!0 = !{i32 1, !"wchar_size", i32 4}
!1 = !{!"clang version 10.0.0-4ubuntu1 "}
